target datalayout = "e-m:e-p270:32:32-p271:32:32-p272:64:64-i64:64-i128:128-f80:128-n8:16:32:64-S128"
target triple = "x86_64-pc-linux-gnu"

; Function Attrs: nounwind uwtable
define void @HIST_add(ptr noundef %0, ptr noundef %1, i64 noundef %2) #0 {
  %4 = alloca ptr, align 8
  %5 = alloca ptr, align 8
  %6 = alloca i64, align 8
  %7 = alloca ptr, align 8
  %8 = alloca ptr, align 8
  store ptr %0, ptr %4, align 8, !tbaa !7
  store ptr %1, ptr %5, align 8, !tbaa !10
  store i64 %2, ptr %6, align 8, !tbaa !3
  call void @llvm.lifetime.start.p0(i64 8, ptr %7) #5
  %9 = load ptr, ptr %5, align 8, !tbaa !10
  store ptr %9, ptr %7, align 8, !tbaa !11
  call void @llvm.lifetime.start.p0(i64 8, ptr %8) #5
  %10 = load ptr, ptr %7, align 8, !tbaa !11
  %11 = load i64, ptr %6, align 8, !tbaa !3
  %12 = getelementptr inbounds nuw i8, ptr %10, i64 %11
  store ptr %12, ptr %8, align 8, !tbaa !11
  br label %13

13:                                               ; preds = %17, %3
  %14 = load ptr, ptr %7, align 8, !tbaa !11
  %15 = load ptr, ptr %8, align 8, !tbaa !11
  %16 = icmp ult ptr %14, %15
  br i1 %16, label %17, label %26

17:                                               ; preds = %13
  %18 = load ptr, ptr %4, align 8, !tbaa !7
  %19 = load ptr, ptr %7, align 8, !tbaa !11
  %20 = getelementptr inbounds nuw i8, ptr %19, i32 1
  store ptr %20, ptr %7, align 8, !tbaa !11
  %21 = load i8, ptr %19, align 1, !tbaa !13
  %22 = zext i8 %21 to i64
  %23 = getelementptr inbounds nuw i32, ptr %18, i64 %22
  %24 = load i32, ptr %23, align 4, !tbaa !14
  %25 = add i32 %24, 1
  store i32 %25, ptr %23, align 4, !tbaa !14
  br label %13, !llvm.loop !16

26:                                               ; preds = %13
  call void @llvm.lifetime.end.p0(i64 8, ptr %8) #5
  call void @llvm.lifetime.end.p0(i64 8, ptr %7) #5
  ret void
}