; Function Attrs: nofree norecurse nosync nounwind memory(argmem: readwrite) uwtable
define void @HIST_add(ptr noundef captures(none) %0, ptr noundef readonly captures(address) %1, i64 noundef %2) local_unnamed_addr #1 {
  %4 = getelementptr inbounds nuw i8, ptr %1, i64 %2
  %.not = icmp eq i64 %2, 0
  br i1 %.not, label %._crit_edge, label %.lr.ph

.lr.ph:                                           ; preds = %3, %.lr.ph
  %.06 = phi ptr [ %5, %.lr.ph ], [ %1, %3 ]
  %5 = getelementptr inbounds nuw i8, ptr %.06, i64 1
  %6 = load i8, ptr %.06, align 1, !tbaa !3
  %7 = zext i8 %6 to i64
  %8 = getelementptr inbounds nuw i32, ptr %0, i64 %7
  %9 = load i32, ptr %8, align 4, !tbaa !6
  %10 = add i32 %9, 1
  store i32 %10, ptr %8, align 4, !tbaa !6
  %11 = icmp ult ptr %5, %4
  br i1 %11, label %.lr.ph, label %._crit_edge, !llvm.loop !8

._crit_edge:                                      ; preds = %.lr.ph, %3
  ret void
}